; Function Attrs: null_pointer_is_valid sspstrong uwtable
define internal fastcc i32 @dissect_nfs4_source_servers(ptr noundef %0, i32 noundef %1, ptr noundef %2) unnamed_addr #0 {
  %4 = alloca i32, align 4
  call void @llvm.lifetime.start.p0(i64 4, ptr nonnull %4) #22
  %5 = load i32, ptr @hf_nfs4_source_servers, align 4
  %6 = call ptr @proto_tree_add_item_ret_uint(ptr noundef %2, i32 noundef %5, ptr noundef %0, i32 noundef %1, i32 noundef 4, i32 noundef 0, ptr noundef nonnull %4)
  %7 = add i32 %1, 4
  %8 = load i32, ptr @ett_nfs4_source_servers_sub, align 4
  %9 = call ptr @proto_item_add_subtree(ptr noundef %6, i32 noundef %8)
  %10 = load i32, ptr %4, align 4
  %.not = icmp eq i32 %10, 0
  br i1 %.not, label %._crit_edge, label %.lr.ph

.lr.ph:                                           ; preds = %3, %.lr.ph
  %.017 = phi i32 [ %16, %.lr.ph ], [ 0, %3 ]
  %.01516 = phi i32 [ %15, %.lr.ph ], [ %7, %3 ]
  %11 = load i32, ptr @hf_nfs4_source_server_index, align 4
  %12 = call ptr @proto_tree_add_uint(ptr noundef %9, i32 noundef %11, ptr noundef %0, i32 noundef %.01516, i32 noundef 4, i32 noundef %.017)
  %13 = load i32, ptr @ett_nfs4_source_servers_sub, align 4
  %14 = call ptr @proto_item_add_subtree(ptr noundef %12, i32 noundef %13)
  %15 = call fastcc i32 @dissect_nfs4_netloc(ptr noundef %0, i32 noundef %.01516, ptr noundef %14)
  %16 = add nuw i32 %.017, 1
  %17 = load i32, ptr %4, align 4
  %18 = icmp ult i32 %16, %17
  br i1 %18, label %.lr.ph, label %._crit_edge, !llvm.loop !28

._crit_edge:                                      ; preds = %.lr.ph, %3
  %.015.lcssa = phi i32 [ %7, %3 ], [ %15, %.lr.ph ]
  call void @llvm.lifetime.end.p0(i64 4, ptr nonnull %4) #22
  ret i32 %.015.lcssa
}